target datalayout = "e-m:e-p270:32:32-p271:32:32-p272:64:64-i64:64-i128:128-f80:128-n8:16:32:64-S128"
target triple = "x86_64-pc-linux-gnu"

%struct.ARKodeMemRec = type { ptr, double, ptr, i32, i32, double, double, ptr, i32, double, ptr, i32, i32, ptr, ptr, i32, ptr, ptr, i32, ptr, ptr, ptr, ptr, ptr, ptr, ptr, ptr, ptr, ptr, ptr, ptr, ptr, ptr, ptr, i32, ptr, ptr, i32, ptr, i32, ptr, ptr, ptr, ptr, ptr, ptr, ptr, ptr, ptr, ptr, ptr, ptr, ptr, ptr, ptr, ptr, ptr, ptr, ptr, ptr, ptr, ptr, ptr, ptr, ptr, ptr, i32, ptr, ptr, ptr, ptr, ptr, ptr, ptr, i32, ptr, ptr, ptr, i32, ptr, ptr, ptr, ptr, ptr, ptr, ptr, i32, i32, i32, i32, double, double, double, double, double, double, double, double, double, double, i32, ptr, i64, i32, i32, i32, i32, i64, i64, i32, i64, i64, i64, i64, i64, i64, i64, double, double, double, double, double, i32, double, double, i32, i32, i32, i32, i32, i32, i32, i32, ptr, i32, ptr, ptr, ptr, ptr, i32, i32, i32 }
%struct._generic_SUNMatrix = type { ptr, ptr, ptr }
%struct._generic_SUNMatrix_Ops = type { ptr, ptr, ptr, ptr, ptr, ptr, ptr, ptr, ptr, ptr }
%struct.ARKLsMassMemRec = type { i32, i32, ptr, ptr, ptr, ptr, double, double, i32, double, i64, i64, i64, i64, i64, i64, i64, i64, i64, ptr, ptr, ptr, ptr, ptr, ptr, ptr, ptr, ptr, ptr, i32 }

@.str = private unnamed_addr constant [118 x i8] c"generated/home/dtcxzyw/WorkSpace/Projects/compilers/llvm-opt-benchmark/bench/sundials/sundials/src/arkode/arkode_ls.c\00", align 1
@__func__.arkLsMassInitialize = private unnamed_addr constant [20 x i8] c"arkLsMassInitialize\00", align 1
@.str.55 = private unnamed_addr constant [42 x i8] c"Missing user-provided mass-matrix routine\00", align 1
@.str.56 = private unnamed_addr constant [48 x i8] c"No available mass matrix-vector product routine\00", align 1
@.str.57 = private unnamed_addr constant [57 x i8] c"Missing user-provided mass matrix-vector product routine\00", align 1
@.str.58 = private unnamed_addr constant [31 x i8] c"Missing SUNLinearSolver object\00", align 1
@.str.65 = private unnamed_addr constant [35 x i8] c"Mass matrix solver memory is NULL.\00", align 1

; Function Attrs: nounwind uwtable
define i32 @arkLsInitializeMassCounters(ptr noundef %0) #0 {
  %2 = alloca ptr, align 8
  store ptr %0, ptr %2, align 8, !tbaa !101
  %3 = load ptr, ptr %2, align 8, !tbaa !101
  %4 = getelementptr inbounds nuw %struct.ARKLsMassMemRec, ptr %3, i32 0, i32 10
  store i64 0, ptr %4, align 8, !tbaa !139
  %5 = load ptr, ptr %2, align 8, !tbaa !101
  %6 = getelementptr inbounds nuw %struct.ARKLsMassMemRec, ptr %5, i32 0, i32 11
  store i64 0, ptr %6, align 8, !tbaa !140
  %7 = load ptr, ptr %2, align 8, !tbaa !101
  %8 = getelementptr inbounds nuw %struct.ARKLsMassMemRec, ptr %7, i32 0, i32 12
  store i64 0, ptr %8, align 8, !tbaa !141
  %9 = load ptr, ptr %2, align 8, !tbaa !101
  %10 = getelementptr inbounds nuw %struct.ARKLsMassMemRec, ptr %9, i32 0, i32 13
  store i64 0, ptr %10, align 8, !tbaa !142
  %11 = load ptr, ptr %2, align 8, !tbaa !101
  %12 = getelementptr inbounds nuw %struct.ARKLsMassMemRec, ptr %11, i32 0, i32 14
  store i64 0, ptr %12, align 8, !tbaa !143
  %13 = load ptr, ptr %2, align 8, !tbaa !101
  %14 = getelementptr inbounds nuw %struct.ARKLsMassMemRec, ptr %13, i32 0, i32 15
  store i64 0, ptr %14, align 8, !tbaa !144
  %15 = load ptr, ptr %2, align 8, !tbaa !101
  %16 = getelementptr inbounds nuw %struct.ARKLsMassMemRec, ptr %15, i32 0, i32 16
  store i64 0, ptr %16, align 8, !tbaa !145
  %17 = load ptr, ptr %2, align 8, !tbaa !101
  %18 = getelementptr inbounds nuw %struct.ARKLsMassMemRec, ptr %17, i32 0, i32 17
  store i64 0, ptr %18, align 8, !tbaa !146
  %19 = load ptr, ptr %2, align 8, !tbaa !101
  %20 = getelementptr inbounds nuw %struct.ARKLsMassMemRec, ptr %19, i32 0, i32 18
  store i64 0, ptr %20, align 8, !tbaa !147
  %21 = load ptr, ptr %2, align 8, !tbaa !101
  %22 = getelementptr inbounds nuw %struct.ARKLsMassMemRec, ptr %21, i32 0, i32 9
  store double 0xFFEFFFFFFFFFFFFF, ptr %22, align 8, !tbaa !148
  ret i32 0
}

; Function Attrs: nounwind uwtable
define i32 @arkLs_AccessMassMem(ptr noundef %0, ptr noundef %1, ptr noundef %2) #0 {
  %4 = alloca i32, align 4
  %5 = alloca ptr, align 8
  %6 = alloca ptr, align 8
  %7 = alloca ptr, align 8
  %8 = alloca ptr, align 8
  %9 = alloca i32, align 4
  store ptr %0, ptr %5, align 8, !tbaa !11
  store ptr %1, ptr %6, align 8, !tbaa !155
  store ptr %2, ptr %7, align 8, !tbaa !159
  call void @llvm.lifetime.start.p0(i64 8, ptr %8) #7
  %10 = load ptr, ptr %5, align 8, !tbaa !11
  %11 = getelementptr inbounds nuw %struct.ARKodeMemRec, ptr %10, i32 0, i32 69
  %12 = load ptr, ptr %11, align 8, !tbaa !97
  %13 = load ptr, ptr %5, align 8, !tbaa !11
  %14 = call ptr %12(ptr noundef %13)
  store ptr %14, ptr %8, align 8, !tbaa !3
  %15 = load ptr, ptr %8, align 8, !tbaa !3
  %16 = icmp eq ptr %15, null
  br i1 %16, label %17, label %20

17:                                               ; preds = %3
  %18 = load ptr, ptr %5, align 8, !tbaa !11
  %19 = load ptr, ptr %6, align 8, !tbaa !155
  call void (ptr, i32, i32, ptr, ptr, ptr, ...) @arkProcessError(ptr noundef %18, i32 noundef -6, i32 noundef 4109, ptr noundef %19, ptr noundef @.str, ptr noundef @.str.65)
  store i32 -6, ptr %4, align 4
  store i32 1, ptr %9, align 4
  br label %23

20:                                               ; preds = %3
  %21 = load ptr, ptr %8, align 8, !tbaa !3
  %22 = load ptr, ptr %7, align 8, !tbaa !159
  store ptr %21, ptr %22, align 8, !tbaa !101
  store i32 0, ptr %4, align 4
  store i32 1, ptr %9, align 4
  br label %23

23:                                               ; preds = %20, %17
  call void @llvm.lifetime.end.p0(i64 8, ptr %8) #7
  %24 = load i32, ptr %4, align 4
  ret i32 %24
}

; Function Attrs: nounwind uwtable
define i32 @arkLsMassInitialize(ptr noundef %0) #0 {
  %2 = alloca i32, align 4
  %3 = alloca ptr, align 8
  %4 = alloca ptr, align 8
  %5 = alloca i32, align 4
  %6 = alloca i32, align 4
  store ptr %0, ptr %3, align 8, !tbaa !11
  call void @llvm.lifetime.start.p0(i64 8, ptr %4) #7
  call void @llvm.lifetime.start.p0(i64 4, ptr %5) #7
  %7 = load ptr, ptr %3, align 8, !tbaa !11
  %8 = call i32 @arkLs_AccessMassMem(ptr noundef %7, ptr noundef @__func__.arkLsMassInitialize, ptr noundef %4)
  store i32 %8, ptr %5, align 4, !tbaa !30
  %9 = load i32, ptr %5, align 4, !tbaa !30
  %10 = icmp ne i32 %9, 0
  br i1 %10, label %11, label %13

11:                                               ; preds = %1
  %12 = load i32, ptr %5, align 4, !tbaa !30
  store i32 %12, ptr %2, align 4
  store i32 1, ptr %6, align 4
  br label %135

13:                                               ; preds = %1
  %14 = load ptr, ptr %4, align 8, !tbaa !101
  %15 = call i32 @arkLsInitializeMassCounters(ptr noundef %14)
  %16 = load ptr, ptr %4, align 8, !tbaa !101
  %17 = getelementptr inbounds nuw %struct.ARKLsMassMemRec, ptr %16, i32 0, i32 3
  %18 = load ptr, ptr %17, align 8, !tbaa !108
  %19 = icmp ne ptr %18, null
  br i1 %19, label %20, label %54

20:                                               ; preds = %13
  %21 = load ptr, ptr %4, align 8, !tbaa !101
  %22 = getelementptr inbounds nuw %struct.ARKLsMassMemRec, ptr %21, i32 0, i32 2
  %23 = load ptr, ptr %22, align 8, !tbaa !125
  %24 = icmp eq ptr %23, null
  br i1 %24, label %25, label %32

25:                                               ; preds = %20
  %26 = load ptr, ptr %3, align 8, !tbaa !11
  call void (ptr, i32, i32, ptr, ptr, ptr, ...) @arkProcessError(ptr noundef %26, i32 noundef -3, i32 noundef 3575, ptr noundef @__func__.arkLsMassInitialize, ptr noundef @.str, ptr noundef @.str.55)
  %27 = load ptr, ptr %4, align 8, !tbaa !101
  %28 = getelementptr inbounds nuw %struct.ARKLsMassMemRec, ptr %27, i32 0, i32 29
  store i32 -3, ptr %28, align 8, !tbaa !135
  %29 = load ptr, ptr %4, align 8, !tbaa !101
  %30 = getelementptr inbounds nuw %struct.ARKLsMassMemRec, ptr %29, i32 0, i32 29
  %31 = load i32, ptr %30, align 8, !tbaa !135
  store i32 %31, ptr %2, align 4
  store i32 1, ptr %6, align 4
  br label %135

32:                                               ; preds = %20
  %33 = load ptr, ptr %4, align 8, !tbaa !101
  %34 = getelementptr inbounds nuw %struct.ARKLsMassMemRec, ptr %33, i32 0, i32 27
  %35 = load ptr, ptr %34, align 8, !tbaa !128
  %36 = icmp eq ptr %35, null
  br i1 %36, label %37, label %53

37:                                               ; preds = %32
  %38 = load ptr, ptr %4, align 8, !tbaa !101
  %39 = getelementptr inbounds nuw %struct.ARKLsMassMemRec, ptr %38, i32 0, i32 3
  %40 = load ptr, ptr %39, align 8, !tbaa !108
  %41 = getelementptr inbounds nuw %struct._generic_SUNMatrix, ptr %40, i32 0, i32 1
  %42 = load ptr, ptr %41, align 8, !tbaa !103
  %43 = getelementptr inbounds nuw %struct._generic_SUNMatrix_Ops, ptr %42, i32 0, i32 8
  %44 = load ptr, ptr %43, align 8, !tbaa !149
  %45 = icmp eq ptr %44, null
  br i1 %45, label %46, label %53

46:                                               ; preds = %37
  %47 = load ptr, ptr %3, align 8, !tbaa !11
  call void (ptr, i32, i32, ptr, ptr, ptr, ...) @arkProcessError(ptr noundef %47, i32 noundef -3, i32 noundef 3583, ptr noundef @__func__.arkLsMassInitialize, ptr noundef @.str, ptr noundef @.str.56)
  %48 = load ptr, ptr %4, align 8, !tbaa !101
  %49 = getelementptr inbounds nuw %struct.ARKLsMassMemRec, ptr %48, i32 0, i32 29
  store i32 -3, ptr %49, align 8, !tbaa !135
  %50 = load ptr, ptr %4, align 8, !tbaa !101
  %51 = getelementptr inbounds nuw %struct.ARKLsMassMemRec, ptr %50, i32 0, i32 29
  %52 = load i32, ptr %51, align 8, !tbaa !135
  store i32 %52, ptr %2, align 4
  store i32 1, ptr %6, align 4
  br label %135

53:                                               ; preds = %37, %32
  br label %54

54:                                               ; preds = %53, %13
  %55 = load ptr, ptr %4, align 8, !tbaa !101
  %56 = getelementptr inbounds nuw %struct.ARKLsMassMemRec, ptr %55, i32 0, i32 3
  %57 = load ptr, ptr %56, align 8, !tbaa !108
  %58 = icmp eq ptr %57, null
  br i1 %58, label %59, label %77

59:                                               ; preds = %54
  %60 = load ptr, ptr %4, align 8, !tbaa !101
  %61 = getelementptr inbounds nuw %struct.ARKLsMassMemRec, ptr %60, i32 0, i32 27
  %62 = load ptr, ptr %61, align 8, !tbaa !128
  %63 = icmp eq ptr %62, null
  br i1 %63, label %64, label %77

64:                                               ; preds = %59
  %65 = load ptr, ptr %4, align 8, !tbaa !101
  %66 = getelementptr inbounds nuw %struct.ARKLsMassMemRec, ptr %65, i32 0, i32 19
  %67 = load ptr, ptr %66, align 8, !tbaa !110
  %68 = call i32 @SUNLinSolGetType(ptr noundef %67)
  %69 = icmp ne i32 %68, 3
  br i1 %69, label %70, label %77

70:                                               ; preds = %64
  %71 = load ptr, ptr %3, align 8, !tbaa !11
  call void (ptr, i32, i32, ptr, ptr, ptr, ...) @arkProcessError(ptr noundef %71, i32 noundef -3, i32 noundef 3594, ptr noundef @__func__.arkLsMassInitialize, ptr noundef @.str, ptr noundef @.str.57)
  %72 = load ptr, ptr %4, align 8, !tbaa !101
  %73 = getelementptr inbounds nuw %struct.ARKLsMassMemRec, ptr %72, i32 0, i32 29
  store i32 -3, ptr %73, align 8, !tbaa !135
  %74 = load ptr, ptr %4, align 8, !tbaa !101
  %75 = getelementptr inbounds nuw %struct.ARKLsMassMemRec, ptr %74, i32 0, i32 29
  %76 = load i32, ptr %75, align 8, !tbaa !135
  store i32 %76, ptr %2, align 4
  store i32 1, ptr %6, align 4
  br label %135

77:                                               ; preds = %64, %59, %54
  %78 = load ptr, ptr %4, align 8, !tbaa !101
  %79 = getelementptr inbounds nuw %struct.ARKLsMassMemRec, ptr %78, i32 0, i32 19
  %80 = load ptr, ptr %79, align 8, !tbaa !110
  %81 = icmp eq ptr %80, null
  br i1 %81, label %82, label %89

82:                                               ; preds = %77
  %83 = load ptr, ptr %3, align 8, !tbaa !11
  call void (ptr, i32, i32, ptr, ptr, ptr, ...) @arkProcessError(ptr noundef %83, i32 noundef -3, i32 noundef 3603, ptr noundef @__func__.arkLsMassInitialize, ptr noundef @.str, ptr noundef @.str.58)
  %84 = load ptr, ptr %4, align 8, !tbaa !101
  %85 = getelementptr inbounds nuw %struct.ARKLsMassMemRec, ptr %84, i32 0, i32 29
  store i32 -3, ptr %85, align 8, !tbaa !135
  %86 = load ptr, ptr %4, align 8, !tbaa !101
  %87 = getelementptr inbounds nuw %struct.ARKLsMassMemRec, ptr %86, i32 0, i32 29
  %88 = load i32, ptr %87, align 8, !tbaa !135
  store i32 %88, ptr %2, align 4
  store i32 1, ptr %6, align 4
  br label %135

89:                                               ; preds = %77
  %90 = load ptr, ptr %4, align 8, !tbaa !101
  %91 = getelementptr inbounds nuw %struct.ARKLsMassMemRec, ptr %90, i32 0, i32 3
  %92 = load ptr, ptr %91, align 8, !tbaa !108
  %93 = icmp eq ptr %92, null
  br i1 %93, label %94, label %114

94:                                               ; preds = %89
  %95 = load ptr, ptr %4, align 8, !tbaa !101
  %96 = getelementptr inbounds nuw %struct.ARKLsMassMemRec, ptr %95, i32 0, i32 22
  %97 = load ptr, ptr %96, align 8, !tbaa !130
  %98 = icmp eq ptr %97, null
  br i1 %98, label %99, label %114

99:                                               ; preds = %94
  %100 = load ptr, ptr %4, align 8, !tbaa !101
  %101 = getelementptr inbounds nuw %struct.ARKLsMassMemRec, ptr %100, i32 0, i32 26
  %102 = load ptr, ptr %101, align 8, !tbaa !127
  %103 = icmp eq ptr %102, null
  br i1 %103, label %104, label %114

104:                                              ; preds = %99
  %105 = load ptr, ptr %3, align 8, !tbaa !11
  %106 = getelementptr inbounds nuw %struct.ARKodeMemRec, ptr %105, i32 0, i32 68
  %107 = load ptr, ptr %106, align 8, !tbaa !150
  %108 = icmp ne ptr %107, null
  br i1 %108, label %109, label %114

109:                                              ; preds = %104
  %110 = load ptr, ptr %3, align 8, !tbaa !11
  %111 = getelementptr inbounds nuw %struct.ARKodeMemRec, ptr %110, i32 0, i32 68
  %112 = load ptr, ptr %111, align 8, !tbaa !150
  %113 = load ptr, ptr %3, align 8, !tbaa !11
  call void %112(ptr noundef %113)
  br label %114

114:                                              ; preds = %109, %104, %99, %94, %89
  %115 = load ptr, ptr %4, align 8, !tbaa !101
  %116 = getelementptr inbounds nuw %struct.ARKLsMassMemRec, ptr %115, i32 0, i32 19
  %117 = load ptr, ptr %116, align 8, !tbaa !110
  %118 = call i32 @SUNLinSolGetType(ptr noundef %117)
  %119 = icmp eq i32 %118, 3
  br i1 %119, label %120, label %125

120:                                              ; preds = %114
  %121 = load ptr, ptr %3, align 8, !tbaa !11
  %122 = getelementptr inbounds nuw %struct.ARKodeMemRec, ptr %121, i32 0, i32 68
  %123 = load ptr, ptr %122, align 8, !tbaa !150
  %124 = load ptr, ptr %3, align 8, !tbaa !11
  call void %123(ptr noundef %124)
  br label %125

125:                                              ; preds = %120, %114
  %126 = load ptr, ptr %4, align 8, !tbaa !101
  %127 = getelementptr inbounds nuw %struct.ARKLsMassMemRec, ptr %126, i32 0, i32 19
  %128 = load ptr, ptr %127, align 8, !tbaa !110
  %129 = call i32 @SUNLinSolInitialize(ptr noundef %128)
  %130 = load ptr, ptr %4, align 8, !tbaa !101
  %131 = getelementptr inbounds nuw %struct.ARKLsMassMemRec, ptr %130, i32 0, i32 29
  store i32 %129, ptr %131, align 8, !tbaa !135
  %132 = load ptr, ptr %4, align 8, !tbaa !101
  %133 = getelementptr inbounds nuw %struct.ARKLsMassMemRec, ptr %132, i32 0, i32 29
  %134 = load i32, ptr %133, align 8, !tbaa !135
  store i32 %134, ptr %2, align 4
  store i32 1, ptr %6, align 4
  br label %135

135:                                              ; preds = %125, %82, %70, %46, %25, %11
  call void @llvm.lifetime.end.p0(i64 4, ptr %5) #7
  call void @llvm.lifetime.end.p0(i64 8, ptr %4) #7
  %136 = load i32, ptr %2, align 4
  ret i32 %136
}