; Function Attrs: nounwind uwtable
define i32 @arkLsMassInitialize(ptr noundef %0) #0 {
  %2 = getelementptr inbounds nuw i8, ptr %0, i64 536
  %3 = load ptr, ptr %2, align 8, !tbaa !75
  %4 = tail call ptr %3(ptr noundef %0) #13
  %5 = icmp eq ptr %4, null
  br i1 %5, label %arkLs_AccessMassMem.exit, label %6

arkLs_AccessMassMem.exit:                         ; preds = %1
  tail call void (ptr, i32, i32, ptr, ptr, ptr, ...) @arkProcessError(ptr noundef nonnull %0, i32 noundef -6, i32 noundef 4109, ptr noundef nonnull @__func__.arkLsMassInitialize, ptr noundef nonnull @.str, ptr noundef nonnull @.str.65) #13
  br label %70

6:                                                ; preds = %1
  %7 = getelementptr inbounds nuw i8, ptr %4, i64 72
  %8 = getelementptr inbounds nuw i8, ptr %4, i64 64
  tail call void @llvm.memset.p0.i64(ptr noundef nonnull align 8 dereferenceable(72) %7, i8 0, i64 72, i1 false)
  store double 0xFFEFFFFFFFFFFFFF, ptr %8, align 8, !tbaa !111
  %9 = getelementptr inbounds nuw i8, ptr %4, i64 16
  %10 = load ptr, ptr %9, align 8, !tbaa !86
  %.not15 = icmp eq ptr %10, null
  br i1 %.not15, label %29, label %11

11:                                               ; preds = %6
  %12 = getelementptr inbounds nuw i8, ptr %4, i64 8
  %13 = load ptr, ptr %12, align 8, !tbaa !116
  %14 = icmp eq ptr %13, null
  br i1 %14, label %15, label %17

15:                                               ; preds = %11
  tail call void (ptr, i32, i32, ptr, ptr, ptr, ...) @arkProcessError(ptr noundef nonnull %0, i32 noundef -3, i32 noundef 3575, ptr noundef nonnull @__func__.arkLsMassInitialize, ptr noundef nonnull @.str, ptr noundef nonnull @.str.55) #13
  %16 = getelementptr inbounds nuw i8, ptr %4, i64 224
  store i32 -3, ptr %16, align 8, !tbaa !117
  br label %70

17:                                               ; preds = %11
  %18 = getelementptr inbounds nuw i8, ptr %4, i64 208
  %19 = load ptr, ptr %18, align 8, !tbaa !118
  %20 = icmp eq ptr %19, null
  br i1 %20, label %21, label %.thread

21:                                               ; preds = %17
  %22 = getelementptr inbounds nuw i8, ptr %10, i64 8
  %23 = load ptr, ptr %22, align 8, !tbaa !81
  %24 = getelementptr inbounds nuw i8, ptr %23, i64 64
  %25 = load ptr, ptr %24, align 8, !tbaa !119
  %26 = icmp eq ptr %25, null
  br i1 %26, label %27, label %.thread

27:                                               ; preds = %21
  tail call void (ptr, i32, i32, ptr, ptr, ptr, ...) @arkProcessError(ptr noundef nonnull %0, i32 noundef -3, i32 noundef 3583, ptr noundef nonnull @__func__.arkLsMassInitialize, ptr noundef nonnull @.str, ptr noundef nonnull @.str.56) #13
  %28 = getelementptr inbounds nuw i8, ptr %4, i64 224
  store i32 -3, ptr %28, align 8, !tbaa !117
  br label %70

29:                                               ; preds = %6
  %30 = getelementptr inbounds nuw i8, ptr %4, i64 208
  %31 = load ptr, ptr %30, align 8, !tbaa !118
  %32 = icmp eq ptr %31, null
  br i1 %32, label %33, label %.thread

33:                                               ; preds = %29
  %34 = getelementptr inbounds nuw i8, ptr %4, i64 144
  %35 = load ptr, ptr %34, align 8, !tbaa !88
  %36 = tail call i32 @SUNLinSolGetType(ptr noundef %35) #13
  %.not16 = icmp eq i32 %36, 3
  br i1 %.not16, label %.thread, label %37

37:                                               ; preds = %33
  tail call void (ptr, i32, i32, ptr, ptr, ptr, ...) @arkProcessError(ptr noundef nonnull %0, i32 noundef -3, i32 noundef 3594, ptr noundef nonnull @__func__.arkLsMassInitialize, ptr noundef nonnull @.str, ptr noundef nonnull @.str.57) #13
  %38 = getelementptr inbounds nuw i8, ptr %4, i64 224
  store i32 -3, ptr %38, align 8, !tbaa !117
  br label %70

.thread:                                          ; preds = %21, %17, %33, %29
  %39 = getelementptr inbounds nuw i8, ptr %4, i64 144
  %40 = load ptr, ptr %39, align 8, !tbaa !88
  %41 = icmp eq ptr %40, null
  br i1 %41, label %42, label %44

42:                                               ; preds = %.thread
  tail call void (ptr, i32, i32, ptr, ptr, ptr, ...) @arkProcessError(ptr noundef nonnull %0, i32 noundef -3, i32 noundef 3603, ptr noundef nonnull @__func__.arkLsMassInitialize, ptr noundef nonnull @.str, ptr noundef nonnull @.str.58) #13
  %43 = getelementptr inbounds nuw i8, ptr %4, i64 224
  store i32 -3, ptr %43, align 8, !tbaa !117
  br label %70

44:                                               ; preds = %.thread
  %45 = load ptr, ptr %9, align 8, !tbaa !86
  %46 = icmp eq ptr %45, null
  br i1 %46, label %47, label %59

47:                                               ; preds = %44
  %48 = getelementptr inbounds nuw i8, ptr %4, i64 168
  %49 = load ptr, ptr %48, align 8, !tbaa !120
  %50 = icmp eq ptr %49, null
  br i1 %50, label %51, label %59

51:                                               ; preds = %47
  %52 = getelementptr inbounds nuw i8, ptr %4, i64 200
  %53 = load ptr, ptr %52, align 8, !tbaa !121
  %54 = icmp eq ptr %53, null
  br i1 %54, label %55, label %59

55:                                               ; preds = %51
  %56 = getelementptr inbounds nuw i8, ptr %0, i64 528
  %57 = load ptr, ptr %56, align 8, !tbaa !122
  %.not17 = icmp eq ptr %57, null
  br i1 %.not17, label %59, label %58

58:                                               ; preds = %55
  tail call void %57(ptr noundef nonnull %0) #13
  %.pre = load ptr, ptr %39, align 8, !tbaa !88
  br label %59

59:                                               ; preds = %58, %55, %51, %47, %44
  %60 = phi ptr [ %.pre, %58 ], [ %40, %55 ], [ %40, %51 ], [ %40, %47 ], [ %40, %44 ]
  %61 = tail call i32 @SUNLinSolGetType(ptr noundef %60) #13
  %62 = icmp eq i32 %61, 3
  br i1 %62, label %63, label %66

63:                                               ; preds = %59
  %64 = getelementptr inbounds nuw i8, ptr %0, i64 528
  %65 = load ptr, ptr %64, align 8, !tbaa !122
  tail call void %65(ptr noundef nonnull %0) #13
  br label %66

66:                                               ; preds = %63, %59
  %67 = load ptr, ptr %39, align 8, !tbaa !88
  %68 = tail call i32 @SUNLinSolInitialize(ptr noundef %67) #13
  %69 = getelementptr inbounds nuw i8, ptr %4, i64 224
  store i32 %68, ptr %69, align 8, !tbaa !117
  br label %70

70:                                               ; preds = %arkLs_AccessMassMem.exit, %66, %42, %37, %27, %15
  %.0 = phi i32 [ -3, %15 ], [ -3, %27 ], [ -3, %37 ], [ -3, %42 ], [ %68, %66 ], [ -6, %arkLs_AccessMassMem.exit ]
  ret i32 %.0
}